; Function Attrs: nofree norecurse nosync nounwind memory(read, argmem: readwrite, inaccessiblemem: none) uwtable
define dso_local noundef ptr @hashmap_iter_next(ptr noundef captures(none) %0) local_unnamed_addr #8 {
  %2 = getelementptr inbounds nuw i8, ptr %0, i64 8
  %.015 = load ptr, ptr %2, align 8, !tbaa !24
  %.not16 = icmp eq ptr %.015, null
  br i1 %.not16, label %.lr.ph, label %._crit_edge

.lr.ph:                                           ; preds = %1
  %3 = getelementptr inbounds nuw i8, ptr %0, i64 16
  %4 = load ptr, ptr %0, align 8, !tbaa !35
  %5 = getelementptr inbounds nuw i8, ptr %4, i64 28
  %6 = load i32, ptr %5, align 4, !tbaa !13
  %.promoted = load i32, ptr %3, align 8, !tbaa !38
  %7 = zext i32 %.promoted to i64
  %umax = tail call i32 @llvm.umax.i32(i32 %.promoted, i32 %6)
  %wide.trip.count = zext i32 %umax to i64
  br label %9

._crit_edge:                                      ; preds = %10, %1
  %.0.lcssa = phi ptr [ %.015, %1 ], [ %.0, %10 ]
  %8 = load ptr, ptr %.0.lcssa, align 8, !tbaa !26
  store ptr %8, ptr %2, align 8, !tbaa !39
  br label %.loopexit

9:                                                ; preds = %.lr.ph, %10
  %indvars.iv = phi i64 [ %7, %.lr.ph ], [ %indvars.iv.next, %10 ]
  %exitcond.not = icmp eq i64 %indvars.iv, %wide.trip.count
  br i1 %exitcond.not, label %.loopexit, label %10

10:                                               ; preds = %9
  %11 = load ptr, ptr %4, align 8, !tbaa !21
  %indvars.iv.next = add nuw nsw i64 %indvars.iv, 1
  %12 = trunc nuw i64 %indvars.iv.next to i32
  store i32 %12, ptr %3, align 8, !tbaa !38
  %13 = getelementptr inbounds nuw ptr, ptr %11, i64 %indvars.iv
  %.0 = load ptr, ptr %13, align 8, !tbaa !24
  %.not = icmp eq ptr %.0, null
  br i1 %.not, label %9, label %._crit_edge

.loopexit:                                        ; preds = %9, %._crit_edge
  %.014 = phi ptr [ %.0.lcssa, %._crit_edge ], [ null, %9 ]
  ret ptr %.014
}